target datalayout = "e-m:e-p270:32:32-p271:32:32-p272:64:64-i64:64-i128:128-f80:128-n8:16:32:64-S128"
target triple = "x86_64-pc-linux-gnu"

%struct.EncoderSession = type { i32, i32, i32, i32, ptr, ptr, ptr, i32, i32, i32, i64, i64, i64, i64, i32, i64, [16 x i8], %struct.SampleInfo, i32, %union.anon.4, ptr, ptr, ptr, double, double }
%struct.SampleInfo = type { i32, i32, i32, i32, i32, i32, i32, i32 }
%union.anon.4 = type { %struct.anon.6 }
%struct.anon.6 = type { ptr, %struct.FLACDecoderData }
%struct.FLACDecoderData = type { i64, ptr, i32, i64, [1024 x ptr], i64, i32 }

; Function Attrs: nounwind sspstrong uwtable
define internal i32 @flac_decoder_length_callback(ptr noundef %0, ptr noundef %1, ptr noundef %2) #0 {
  %4 = alloca i32, align 4
  %5 = alloca ptr, align 8
  %6 = alloca ptr, align 8
  %7 = alloca ptr, align 8
  %8 = alloca ptr, align 8
  %9 = alloca ptr, align 8
  %10 = alloca i32, align 4
  store ptr %0, ptr %5, align 8, !tbaa !48
  store ptr %1, ptr %6, align 8, !tbaa !137
  store ptr %2, ptr %7, align 8, !tbaa !48
  call void @llvm.lifetime.start.p0(i64 8, ptr %8) #14
  %11 = load ptr, ptr %7, align 8, !tbaa !48
  store ptr %11, ptr %8, align 8, !tbaa !48
  call void @llvm.lifetime.start.p0(i64 8, ptr %9) #14
  %12 = load ptr, ptr %8, align 8, !tbaa !48
  %13 = getelementptr inbounds nuw %struct.EncoderSession, ptr %12, i32 0, i32 19
  %14 = getelementptr inbounds nuw %struct.anon.6, ptr %13, i32 0, i32 1
  store ptr %14, ptr %9, align 8, !tbaa !48
  %15 = load ptr, ptr %9, align 8, !tbaa !48
  %16 = getelementptr inbounds nuw %struct.FLACDecoderData, ptr %15, i32 0, i32 0
  %17 = load i64, ptr %16, align 8, !tbaa !178
  %18 = icmp slt i64 %17, 0
  br i1 %18, label %19, label %20

19:                                               ; preds = %3
  store i32 1, ptr %4, align 4
  store i32 1, ptr %10, align 4
  br label %25

20:                                               ; preds = %3
  %21 = load ptr, ptr %9, align 8, !tbaa !48
  %22 = getelementptr inbounds nuw %struct.FLACDecoderData, ptr %21, i32 0, i32 0
  %23 = load i64, ptr %22, align 8, !tbaa !178
  %24 = load ptr, ptr %6, align 8, !tbaa !137
  store i64 %23, ptr %24, align 8, !tbaa !9
  store i32 0, ptr %4, align 4
  store i32 1, ptr %10, align 4
  br label %25

25:                                               ; preds = %20, %19
  call void @llvm.lifetime.end.p0(i64 8, ptr %9) #14
  call void @llvm.lifetime.end.p0(i64 8, ptr %8) #14
  %26 = load i32, ptr %4, align 4
  ret i32 %26
}