; Function Attrs: mustprogress nofree norecurse nosync nounwind sspstrong willreturn memory(argmem: readwrite) uwtable
define internal range(i32 0, 2) i32 @flac_decoder_length_callback(ptr readnone captures(none) %0, ptr noundef writeonly captures(none) %1, ptr noundef readonly captures(none) %2) #8 {
  %4 = getelementptr inbounds nuw i8, ptr %2, i64 168
  %5 = load i64, ptr %4, align 8, !tbaa !178
  %6 = icmp slt i64 %5, 0
  br i1 %6, label %8, label %7

7:                                                ; preds = %3
  store i64 %5, ptr %1, align 8, !tbaa !35
  br label %8

8:                                                ; preds = %3, %7
  %.0 = phi i32 [ 0, %7 ], [ 1, %3 ]
  ret i32 %.0
}